; Function Attrs: cold nounwind optsize uwtable
define internal i32 @latm_decode_init(ptr noundef %0) #5 {
  %2 = getelementptr inbounds nuw i8, ptr %0, i64 32
  %3 = load ptr, ptr %2, align 8, !tbaa !51
  %4 = tail call i32 @ff_aac_decode_init_float(ptr noundef %0) #13
  %5 = getelementptr inbounds nuw i8, ptr %0, i64 80
  %6 = load i32, ptr %5, align 8, !tbaa !93
  %7 = icmp sgt i32 %6, 0
  br i1 %7, label %8, label %11

8:                                                ; preds = %1
  %.not = icmp eq i32 %4, 0
  %9 = zext i1 %.not to i32
  %10 = getelementptr inbounds nuw i8, ptr %3, i64 34896
  store i32 %9, ptr %10, align 16, !tbaa !150
  br label %11

11:                                               ; preds = %8, %1
  ret i32 %4
}